; Function Attrs: mustprogress uwtable
define hidden noundef ptr @_ZNK6google8protobuf8internal12ExtensionSet41SerializeMessageSetWithCachedSizesToArrayEPKNS0_11MessageLiteEPh(ptr noundef nonnull align 8 dereferenceable(24) %0, ptr noundef %1, ptr noundef %2) local_unnamed_addr #3 align 2 personality ptr @__gxx_personality_v0 {
  %4 = alloca %"class.google::protobuf::io::EpsCopyOutputStream", align 8
  call void @llvm.lifetime.start.p0(i64 64, ptr nonnull %4) #21
  %5 = tail call noundef i64 @_ZNK6google8protobuf8internal12ExtensionSet18MessageSetByteSizeEv(ptr noundef nonnull align 8 dereferenceable(24) %0)
  %6 = load atomic i8, ptr @_ZN6google8protobuf2io17CodedOutputStream36default_serialization_deterministic_E monotonic, align 1
  %7 = and i8 %6, 1
  %sext = shl i64 %5, 32
  %8 = ashr exact i64 %sext, 32
  %9 = getelementptr inbounds i8, ptr %2, i64 %8
  store ptr %9, ptr %4, align 8, !tbaa !168
  %10 = getelementptr inbounds nuw i8, ptr %4, i64 8
  store ptr null, ptr %10, align 8, !tbaa !171
  %11 = getelementptr inbounds nuw i8, ptr %4, i64 48
  store ptr null, ptr %11, align 8, !tbaa !172
  %12 = getelementptr inbounds nuw i8, ptr %4, i64 56
  store i8 0, ptr %12, align 8, !tbaa !173
  %13 = getelementptr inbounds nuw i8, ptr %4, i64 57
  store i8 0, ptr %13, align 1, !tbaa !174
  %14 = getelementptr inbounds nuw i8, ptr %4, i64 58
  store i8 %7, ptr %14, align 2, !tbaa !175
  %15 = call noundef ptr @_ZNK6google8protobuf8internal12ExtensionSet49InternalSerializeMessageSetWithCachedSizesToArrayEPKNS0_11MessageLiteEPhPNS0_2io19EpsCopyOutputStreamE(ptr noundef nonnull align 8 dereferenceable(24) %0, ptr noundef %1, ptr noundef %2, ptr noundef nonnull %4)
  call void @llvm.lifetime.end.p0(i64 64, ptr nonnull %4) #21
  ret ptr %15
}